target datalayout = "e-m:e-p270:32:32-p271:32:32-p272:64:64-i64:64-i128:128-f80:128-n8:16:32:64-S128"
target triple = "x86_64-pc-linux-gnu"

; Function Attrs: null_pointer_is_valid sspstrong uwtable
define internal zeroext i1 @dissect_fcoib_heur(ptr noundef %0, ptr noundef %1, ptr noundef %2, ptr noundef %3) #0 {
  %5 = alloca i1, align 1
  %6 = alloca ptr, align 8
  %7 = alloca ptr, align 8
  %8 = alloca ptr, align 8
  %9 = alloca ptr, align 8
  %10 = alloca i32, align 4
  %11 = alloca i32, align 4
  %12 = alloca i32, align 4
  %13 = alloca i32, align 4
  %14 = alloca i8, align 1
  %15 = alloca i8, align 1
  %16 = alloca i8, align 1
  %17 = alloca i32, align 4
  store ptr %0, ptr %6, align 8
  store ptr %1, ptr %7, align 8
  store ptr %2, ptr %8, align 8
  store ptr %3, ptr %9, align 8
  call void @llvm.lifetime.start.p0(i64 4, ptr %10) #3
  call void @llvm.lifetime.start.p0(i64 4, ptr %11) #3
  call void @llvm.lifetime.start.p0(i64 4, ptr %12) #3
  call void @llvm.lifetime.start.p0(i64 4, ptr %13) #3
  call void @llvm.lifetime.start.p0(i64 1, ptr %14) #3
  store i8 0, ptr %14, align 1
  call void @llvm.lifetime.start.p0(i64 1, ptr %15) #3
  store i8 0, ptr %15, align 1
  call void @llvm.lifetime.start.p0(i64 1, ptr %16) #3
  store i8 0, ptr %16, align 1
  %18 = load ptr, ptr %6, align 8
  %19 = call i32 @tvb_reported_length_remaining(ptr noundef %18, i32 noundef 0)
  %20 = sub i32 %19, 16
  %21 = sub i32 %20, 8
  store i32 %21, ptr %13, align 4
  %22 = load i32, ptr %13, align 4
  %23 = add i32 16, %22
  store i32 %23, ptr %10, align 4
  %24 = load i32, ptr %10, align 4
  %25 = add i32 %24, 4
  store i32 %25, ptr %11, align 4
  store i32 15, ptr %12, align 4
  %26 = load i32, ptr %13, align 4
  %27 = icmp sle i32 %26, 0
  br i1 %27, label %28, label %29

28:                                               ; preds = %4
  store i1 false, ptr %5, align 1
  store i32 1, ptr %17, align 4
  br label %89

29:                                               ; preds = %4
  %30 = load ptr, ptr %6, align 8
  %31 = call zeroext i1 @tvb_bytes_exist(ptr noundef %30, i32 noundef 0, i32 noundef 1)
  br i1 %31, label %32, label %38

32:                                               ; preds = %29
  %33 = load ptr, ptr %6, align 8
  %34 = call zeroext i8 @tvb_get_uint8(ptr noundef %33, i32 noundef 0)
  %35 = zext i8 %34 to i32
  %36 = ashr i32 %35, 6
  %37 = trunc i32 %36 to i8
  store i8 %37, ptr %16, align 1
  br label %38

38:                                               ; preds = %32, %29
  %39 = load ptr, ptr %6, align 8
  %40 = load i32, ptr %11, align 4
  %41 = call zeroext i1 @tvb_bytes_exist(ptr noundef %39, i32 noundef %40, i32 noundef 1)
  br i1 %41, label %42, label %46

42:                                               ; preds = %38
  %43 = load ptr, ptr %6, align 8
  %44 = load i32, ptr %11, align 4
  %45 = call zeroext i8 @tvb_get_uint8(ptr noundef %43, i32 noundef %44)
  store i8 %45, ptr %15, align 1
  br label %46

46:                                               ; preds = %42, %38
  %47 = load ptr, ptr %6, align 8
  %48 = load i32, ptr %12, align 4
  %49 = call zeroext i1 @tvb_bytes_exist(ptr noundef %47, i32 noundef %48, i32 noundef 1)
  br i1 %49, label %50, label %54

50:                                               ; preds = %46
  %51 = load ptr, ptr %6, align 8
  %52 = load i32, ptr %12, align 4
  %53 = call zeroext i8 @tvb_get_uint8(ptr noundef %51, i32 noundef %52)
  store i8 %53, ptr %14, align 1
  br label %54

54:                                               ; preds = %50, %46
  %55 = load i8, ptr %16, align 1
  %56 = zext i8 %55 to i32
  %57 = icmp ne i32 %56, 1
  br i1 %57, label %58, label %59

58:                                               ; preds = %54
  store i1 false, ptr %5, align 1
  store i32 1, ptr %17, align 4
  br label %89

59:                                               ; preds = %54
  %60 = load ptr, ptr %6, align 8
  %61 = load i32, ptr %11, align 4
  %62 = add i32 %61, 1
  %63 = call zeroext i1 @tvb_bytes_exist(ptr noundef %60, i32 noundef %62, i32 noundef 3)
  br i1 %63, label %64, label %70

64:                                               ; preds = %59
  %65 = load ptr, ptr %6, align 8
  %66 = load i32, ptr %11, align 4
  %67 = add i32 %66, 1
  %68 = call i32 @tvb_get_ntoh24(ptr noundef %65, i32 noundef %67)
  %69 = icmp ne i32 %68, 0
  br i1 %69, label %70, label %71

70:                                               ; preds = %64, %59
  store i1 false, ptr %5, align 1
  store i32 1, ptr %17, align 4
  br label %89

71:                                               ; preds = %64
  %72 = load i8, ptr %14, align 1
  %73 = zext i8 %72 to i32
  %74 = call ptr @try_val_to_str(i32 noundef %73, ptr noundef @fcoib_sof_vals)
  %75 = icmp ne ptr %74, null
  br i1 %75, label %77, label %76

76:                                               ; preds = %71
  store i1 false, ptr %5, align 1
  store i32 1, ptr %17, align 4
  br label %89

77:                                               ; preds = %71
  %78 = load i8, ptr %15, align 1
  %79 = zext i8 %78 to i32
  %80 = call ptr @try_val_to_str(i32 noundef %79, ptr noundef @fcoib_eof_vals)
  %81 = icmp ne ptr %80, null
  br i1 %81, label %83, label %82

82:                                               ; preds = %77
  store i1 false, ptr %5, align 1
  store i32 1, ptr %17, align 4
  br label %89

83:                                               ; preds = %77
  %84 = load ptr, ptr %6, align 8
  %85 = load ptr, ptr %7, align 8
  %86 = load ptr, ptr %8, align 8
  %87 = load ptr, ptr %9, align 8
  %88 = call i32 @dissect_fcoib(ptr noundef %84, ptr noundef %85, ptr noundef %86, ptr noundef %87)
  store i1 true, ptr %5, align 1
  store i32 1, ptr %17, align 4
  br label %89

89:                                               ; preds = %83, %82, %76, %70, %58, %28
  call void @llvm.lifetime.end.p0(i64 1, ptr %16) #3
  call void @llvm.lifetime.end.p0(i64 1, ptr %15) #3
  call void @llvm.lifetime.end.p0(i64 1, ptr %14) #3
  call void @llvm.lifetime.end.p0(i64 4, ptr %13) #3
  call void @llvm.lifetime.end.p0(i64 4, ptr %12) #3
  call void @llvm.lifetime.end.p0(i64 4, ptr %11) #3
  call void @llvm.lifetime.end.p0(i64 4, ptr %10) #3
  %90 = load i1, ptr %5, align 1
  ret i1 %90
}