; Function Attrs: null_pointer_is_valid sspstrong uwtable
define internal noundef zeroext i1 @dissect_fcoib_heur(ptr noundef %0, ptr noundef %1, ptr noundef %2, ptr noundef readnone captures(none) %3) #0 {
  %5 = tail call i32 @tvb_reported_length_remaining(ptr noundef %0, i32 noundef 0)
  %6 = add i32 %5, -24
  %7 = add i32 %5, -4
  %8 = icmp slt i32 %6, 1
  br i1 %8, label %36, label %9

9:                                                ; preds = %4
  %10 = tail call zeroext i1 @tvb_bytes_exist(ptr noundef %0, i32 noundef 0, i32 noundef 1)
  br i1 %10, label %11, label %14

11:                                               ; preds = %9
  %12 = tail call zeroext i8 @tvb_get_uint8(ptr noundef %0, i32 noundef 0)
  %.mask = and i8 %12, -64
  %13 = icmp eq i8 %.mask, 64
  br label %14

14:                                               ; preds = %11, %9
  %.0 = phi i1 [ %13, %11 ], [ false, %9 ]
  %15 = tail call zeroext i1 @tvb_bytes_exist(ptr noundef %0, i32 noundef %7, i32 noundef 1)
  br i1 %15, label %16, label %19

16:                                               ; preds = %14
  %17 = tail call zeroext i8 @tvb_get_uint8(ptr noundef %0, i32 noundef %7)
  %18 = zext i8 %17 to i32
  br label %19

19:                                               ; preds = %16, %14
  %.025 = phi i32 [ %18, %16 ], [ 0, %14 ]
  %20 = tail call zeroext i1 @tvb_bytes_exist(ptr noundef %0, i32 noundef 15, i32 noundef 1)
  br i1 %20, label %21, label %24

21:                                               ; preds = %19
  %22 = tail call zeroext i8 @tvb_get_uint8(ptr noundef %0, i32 noundef 15)
  %23 = zext i8 %22 to i32
  br label %24

24:                                               ; preds = %21, %19
  %.026 = phi i32 [ %23, %21 ], [ 0, %19 ]
  br i1 %.0, label %25, label %36

25:                                               ; preds = %24
  %26 = add i32 %5, -3
  %27 = tail call zeroext i1 @tvb_bytes_exist(ptr noundef %0, i32 noundef %26, i32 noundef 3)
  br i1 %27, label %28, label %36

28:                                               ; preds = %25
  %29 = tail call i32 @tvb_get_ntoh24(ptr noundef %0, i32 noundef %26)
  %.not = icmp eq i32 %29, 0
  br i1 %.not, label %30, label %36

30:                                               ; preds = %28
  %31 = tail call ptr @try_val_to_str(i32 noundef %.026, ptr noundef nonnull @fcoib_sof_vals)
  %.not28 = icmp eq ptr %31, null
  br i1 %.not28, label %36, label %32

32:                                               ; preds = %30
  %33 = tail call ptr @try_val_to_str(i32 noundef %.025, ptr noundef nonnull @fcoib_eof_vals)
  %.not29 = icmp eq ptr %33, null
  br i1 %.not29, label %36, label %34

34:                                               ; preds = %32
  %35 = tail call i32 @dissect_fcoib(ptr noundef %0, ptr noundef %1, ptr noundef %2, ptr poison)
  br label %36

36:                                               ; preds = %32, %30, %25, %28, %24, %4, %34
  %.027 = phi i1 [ true, %34 ], [ false, %4 ], [ false, %24 ], [ false, %28 ], [ false, %25 ], [ false, %30 ], [ false, %32 ]
  ret i1 %.027
}